; Function Attrs: mustprogress nounwind uwtable
define dso_local void @_ZN5clang10SemaAMDGPU32handleAMDGPUMaxNumWorkGroupsAttrEPNS_4DeclERKNS_10ParsedAttrE(ptr noundef nonnull align 8 dereferenceable(8) %0, ptr noundef %1, ptr noundef nonnull align 8 dereferenceable(72) %2) local_unnamed_addr #0 align 2 {
  %4 = getelementptr inbounds nuw i8, ptr %2, i64 48
  %5 = load i32, ptr %4, align 8
  %6 = and i32 %5, 65535
  %7 = icmp samesign ugt i32 %6, 1
  br i1 %7, label %8, label %.thread

8:                                                ; preds = %3
  %9 = getelementptr inbounds nuw i8, ptr %2, i64 80
  %.sroa.0.0.copyload.i.i = load i64, ptr %9, align 8
  %10 = and i64 %.sroa.0.0.copyload.i.i, -4
  %11 = inttoptr i64 %10 to ptr
  %.not = icmp eq i32 %6, 2
  br i1 %.not, label %.thread, label %12

12:                                               ; preds = %8
  %13 = getelementptr inbounds nuw i8, ptr %2, i64 88
  %.sroa.0.0.copyload.i.i10 = load i64, ptr %13, align 8
  %14 = and i64 %.sroa.0.0.copyload.i.i10, -4
  %15 = inttoptr i64 %14 to ptr
  br label %.thread

.thread:                                          ; preds = %3, %8, %12
  %16 = phi ptr [ %11, %12 ], [ %11, %8 ], [ null, %3 ]
  %17 = phi ptr [ %15, %12 ], [ null, %8 ], [ null, %3 ]
  %18 = getelementptr inbounds nuw i8, ptr %2, i64 72
  %.sroa.0.0.copyload.i.i11 = load i64, ptr %18, align 8
  %19 = and i64 %.sroa.0.0.copyload.i.i11, -4
  %20 = inttoptr i64 %19 to ptr
  %21 = tail call noundef ptr @_ZN5clang10SemaAMDGPU32CreateAMDGPUMaxNumWorkGroupsAttrERKNS_19AttributeCommonInfoEPNS_4ExprES5_S5_(ptr noundef nonnull align 8 dereferenceable(8) %0, ptr noundef nonnull align 8 dereferenceable(32) %2, ptr noundef %20, ptr noundef %16, ptr noundef %17)
  %.not.i = icmp eq ptr %21, null
  br i1 %.not.i, label %_ZN5clang10SemaAMDGPU29addAMDGPUMaxNumWorkGroupsAttrEPNS_4DeclERKNS_19AttributeCommonInfoEPNS_4ExprES7_S7_.exit, label %22

22:                                               ; preds = %.thread
  tail call void @_ZN5clang4Decl7addAttrEPNS_4AttrE(ptr noundef nonnull align 8 dereferenceable(33) %1, ptr noundef nonnull %21) #12
  br label %_ZN5clang10SemaAMDGPU29addAMDGPUMaxNumWorkGroupsAttrEPNS_4DeclERKNS_19AttributeCommonInfoEPNS_4ExprES7_S7_.exit

_ZN5clang10SemaAMDGPU29addAMDGPUMaxNumWorkGroupsAttrEPNS_4DeclERKNS_19AttributeCommonInfoEPNS_4ExprES7_S7_.exit: ; preds = %.thread, %22
  ret void
}